target datalayout = "e-m:e-p270:32:32-p271:32:32-p272:64:64-i64:64-i128:128-f80:128-n8:16:32:64-S128"
target triple = "x86_64-pc-linux-gnu"

%"struct.rocksdb::clock_cache::BaseClockTable::EvictionData" = type { i64, i64, i64 }

; Function Attrs: mustprogress nounwind uwtable
define noundef zeroext i1 @_ZN7rocksdb11clock_cache24IsEvictionEffortExceededERKNS0_14BaseClockTable12EvictionDataEj(ptr noundef nonnull align 8 dereferenceable(24) %0, i32 noundef %1) #1 {
  %3 = alloca ptr, align 8
  %4 = alloca i32, align 4
  store ptr %0, ptr %3, align 8, !tbaa !143
  store i32 %1, ptr %4, align 4, !tbaa !34
  %5 = load ptr, ptr %3, align 8, !tbaa !143
  %6 = getelementptr inbounds nuw %"struct.rocksdb::clock_cache::BaseClockTable::EvictionData", ptr %5, i32 0, i32 1
  %7 = load i64, ptr %6, align 8, !tbaa !145
  %8 = add i64 %7, 1
  %9 = load i32, ptr %4, align 4, !tbaa !34
  %10 = zext i32 %9 to i64
  %11 = mul i64 %8, %10
  %12 = load ptr, ptr %3, align 8, !tbaa !143
  %13 = getelementptr inbounds nuw %"struct.rocksdb::clock_cache::BaseClockTable::EvictionData", ptr %12, i32 0, i32 2
  %14 = load i64, ptr %13, align 8, !tbaa !147
  %15 = icmp ule i64 %11, %14
  ret i1 %15
}