; Function Attrs: mustprogress nofree norecurse nosync nounwind willreturn memory(argmem: read) uwtable
define noundef zeroext i1 @_ZN7rocksdb11clock_cache24IsEvictionEffortExceededERKNS0_14BaseClockTable12EvictionDataEj(ptr noundef nonnull readonly align 8 captures(none) dereferenceable(24) %0, i32 noundef %1) local_unnamed_addr #10 {
  %3 = getelementptr inbounds nuw i8, ptr %0, i64 8
  %4 = load i64, ptr %3, align 8, !tbaa !70
  %5 = add i64 %4, 1
  %6 = zext i32 %1 to i64
  %7 = mul i64 %5, %6
  %8 = getelementptr inbounds nuw i8, ptr %0, i64 16
  %9 = load i64, ptr %8, align 8, !tbaa !153
  %10 = icmp ule i64 %7, %9
  ret i1 %10
}